target datalayout = "e-m:e-p270:32:32-p271:32:32-p272:64:64-i64:64-i128:128-f80:128-n8:16:32:64-S128"
target triple = "x86_64-pc-linux-gnu"

%struct.Py_complex = type { double, double }

@log_special_values = internal global [7 x [7 x %struct.Py_complex]] zeroinitializer, align 16

; Function Attrs: nounwind uwtable
define internal double @_Py_log1p(double noundef %0) #0 {
  %2 = alloca double, align 8
  %3 = alloca double, align 8
  store double %0, ptr %3, align 8, !tbaa !9
  %4 = load double, ptr %3, align 8, !tbaa !9
  %5 = fcmp oeq double %4, 0.000000e+00
  br i1 %5, label %6, label %8

6:                                                ; preds = %1
  %7 = load double, ptr %3, align 8, !tbaa !9
  store double %7, ptr %2, align 8
  br label %11

8:                                                ; preds = %1
  %9 = load double, ptr %3, align 8, !tbaa !9
  %10 = call double @log1p(double noundef %9) #8, !tbaa !11
  store double %10, ptr %2, align 8
  br label %11

11:                                               ; preds = %8, %6
  %12 = load double, ptr %2, align 8
  ret double %12
}

; Function Attrs: nounwind uwtable
define internal i32 @special_type(double noundef %0) #0 {
  %2 = alloca i32, align 4
  %3 = alloca double, align 8
  store double %0, ptr %3, align 8, !tbaa !9
  %4 = load double, ptr %3, align 8, !tbaa !9
  %5 = call i1 @llvm.is.fpclass.f64(double %4, i32 504)
  br i1 %5, label %6, label %21

6:                                                ; preds = %1
  %7 = load double, ptr %3, align 8, !tbaa !9
  %8 = fcmp une double %7, 0.000000e+00
  br i1 %8, label %9, label %15

9:                                                ; preds = %6
  %10 = load double, ptr %3, align 8, !tbaa !9
  %11 = call double @llvm.copysign.f64(double 1.000000e+00, double %10)
  %12 = fcmp oeq double %11, 1.000000e+00
  br i1 %12, label %13, label %14

13:                                               ; preds = %9
  store i32 4, ptr %2, align 4
  br label %31

14:                                               ; preds = %9
  store i32 1, ptr %2, align 4
  br label %31

15:                                               ; preds = %6
  %16 = load double, ptr %3, align 8, !tbaa !9
  %17 = call double @llvm.copysign.f64(double 1.000000e+00, double %16)
  %18 = fcmp oeq double %17, 1.000000e+00
  br i1 %18, label %19, label %20

19:                                               ; preds = %15
  store i32 3, ptr %2, align 4
  br label %31

20:                                               ; preds = %15
  store i32 2, ptr %2, align 4
  br label %31

21:                                               ; preds = %1
  %22 = load double, ptr %3, align 8, !tbaa !9
  %23 = call i1 @llvm.is.fpclass.f64(double %22, i32 3)
  br i1 %23, label %24, label %25

24:                                               ; preds = %21
  store i32 6, ptr %2, align 4
  br label %31

25:                                               ; preds = %21
  %26 = load double, ptr %3, align 8, !tbaa !9
  %27 = call double @llvm.copysign.f64(double 1.000000e+00, double %26)
  %28 = fcmp oeq double %27, 1.000000e+00
  br i1 %28, label %29, label %30

29:                                               ; preds = %25
  store i32 5, ptr %2, align 4
  br label %31

30:                                               ; preds = %25
  store i32 0, ptr %2, align 4
  br label %31

31:                                               ; preds = %30, %29, %24, %20, %19, %14, %13
  %32 = load i32, ptr %2, align 4
  ret i32 %32
}

; Function Attrs: nounwind uwtable
define internal { double, double } @c_log(double %0, double %1) #0 {
  %3 = alloca %struct.Py_complex, align 8
  %4 = alloca %struct.Py_complex, align 8
  %5 = alloca %struct.Py_complex, align 8
  %6 = alloca double, align 8
  %7 = alloca double, align 8
  %8 = alloca double, align 8
  %9 = alloca double, align 8
  %10 = alloca double, align 8
  %11 = alloca i32, align 4
  %12 = getelementptr inbounds nuw { double, double }, ptr %4, i32 0, i32 0
  store double %0, ptr %12, align 8
  %13 = getelementptr inbounds nuw { double, double }, ptr %4, i32 0, i32 1
  store double %1, ptr %13, align 8
  call void @llvm.lifetime.start.p0(i64 16, ptr %5) #8
  call void @llvm.lifetime.start.p0(i64 8, ptr %6) #8
  call void @llvm.lifetime.start.p0(i64 8, ptr %7) #8
  call void @llvm.lifetime.start.p0(i64 8, ptr %8) #8
  call void @llvm.lifetime.start.p0(i64 8, ptr %9) #8
  call void @llvm.lifetime.start.p0(i64 8, ptr %10) #8
  %14 = getelementptr inbounds nuw %struct.Py_complex, ptr %4, i32 0, i32 0
  %15 = load double, ptr %14, align 8, !tbaa !17
  %16 = call i1 @llvm.is.fpclass.f64(double %15, i32 504)
  br i1 %16, label %17, label %21

17:                                               ; preds = %2
  %18 = getelementptr inbounds nuw %struct.Py_complex, ptr %4, i32 0, i32 1
  %19 = load double, ptr %18, align 8, !tbaa !19
  %20 = call i1 @llvm.is.fpclass.f64(double %19, i32 504)
  br i1 %20, label %33, label %21

21:                                               ; preds = %17, %2
  %22 = call ptr @__errno_location() #9
  store i32 0, ptr %22, align 4, !tbaa !11
  %23 = getelementptr inbounds nuw %struct.Py_complex, ptr %4, i32 0, i32 0
  %24 = load double, ptr %23, align 8, !tbaa !17
  %25 = call i32 @special_type(double noundef %24)
  %26 = zext i32 %25 to i64
  %27 = getelementptr [7 x [7 x %struct.Py_complex]], ptr @log_special_values, i64 0, i64 %26
  %28 = getelementptr inbounds nuw %struct.Py_complex, ptr %4, i32 0, i32 1
  %29 = load double, ptr %28, align 8, !tbaa !19
  %30 = call i32 @special_type(double noundef %29)
  %31 = zext i32 %30 to i64
  %32 = getelementptr [7 x %struct.Py_complex], ptr %27, i64 0, i64 %31
  call void @llvm.memcpy.p0.p0.i64(ptr align 8 %3, ptr align 16 %32, i64 16, i1 false), !tbaa.struct !8
  store i32 1, ptr %11, align 4
  br label %138

33:                                               ; preds = %17
  %34 = getelementptr inbounds nuw %struct.Py_complex, ptr %4, i32 0, i32 0
  %35 = load double, ptr %34, align 8, !tbaa !17
  %36 = call double @llvm.fabs.f64(double %35)
  store double %36, ptr %6, align 8, !tbaa !9
  %37 = getelementptr inbounds nuw %struct.Py_complex, ptr %4, i32 0, i32 1
  %38 = load double, ptr %37, align 8, !tbaa !19
  %39 = call double @llvm.fabs.f64(double %38)
  store double %39, ptr %7, align 8, !tbaa !9
  %40 = load double, ptr %6, align 8, !tbaa !9
  %41 = fcmp ogt double %40, 0x7FCFFFFFFFFFFFFF
  br i1 %41, label %45, label %42

42:                                               ; preds = %33
  %43 = load double, ptr %7, align 8, !tbaa !9
  %44 = fcmp ogt double %43, 0x7FCFFFFFFFFFFFFF
  br i1 %44, label %45, label %54

45:                                               ; preds = %42, %33
  %46 = load double, ptr %6, align 8, !tbaa !9
  %47 = fdiv double %46, 2.000000e+00
  %48 = load double, ptr %7, align 8, !tbaa !9
  %49 = fdiv double %48, 2.000000e+00
  %50 = call double @hypot(double noundef %47, double noundef %49) #8, !tbaa !11
  %51 = call double @log(double noundef %50) #8, !tbaa !11
  %52 = fadd double %51, 0x3FE62E42FEFA39EF
  %53 = getelementptr inbounds nuw %struct.Py_complex, ptr %5, i32 0, i32 0
  store double %52, ptr %53, align 8, !tbaa !17
  br label %130

54:                                               ; preds = %42
  %55 = load double, ptr %6, align 8, !tbaa !9
  %56 = fcmp olt double %55, 0x10000000000000
  br i1 %56, label %57, label %85

57:                                               ; preds = %54
  %58 = load double, ptr %7, align 8, !tbaa !9
  %59 = fcmp olt double %58, 0x10000000000000
  br i1 %59, label %60, label %85

60:                                               ; preds = %57
  %61 = load double, ptr %6, align 8, !tbaa !9
  %62 = fcmp ogt double %61, 0.000000e+00
  br i1 %62, label %66, label %63

63:                                               ; preds = %60
  %64 = load double, ptr %7, align 8, !tbaa !9
  %65 = fcmp ogt double %64, 0.000000e+00
  br i1 %65, label %66, label %75

66:                                               ; preds = %63, %60
  %67 = load double, ptr %6, align 8, !tbaa !9
  %68 = call double @ldexp(double noundef %67, i32 noundef 53) #8, !tbaa !11
  %69 = load double, ptr %7, align 8, !tbaa !9
  %70 = call double @ldexp(double noundef %69, i32 noundef 53) #8, !tbaa !11
  %71 = call double @hypot(double noundef %68, double noundef %70) #8, !tbaa !11
  %72 = call double @log(double noundef %71) #8, !tbaa !11
  %73 = fsub double %72, 0x40425E4F7B2737FA
  %74 = getelementptr inbounds nuw %struct.Py_complex, ptr %5, i32 0, i32 0
  store double %73, ptr %74, align 8, !tbaa !17
  br label %84

75:                                               ; preds = %63
  %76 = getelementptr inbounds nuw %struct.Py_complex, ptr %5, i32 0, i32 0
  store double 0xFFF0000000000000, ptr %76, align 8, !tbaa !17
  %77 = getelementptr inbounds nuw %struct.Py_complex, ptr %4, i32 0, i32 1
  %78 = load double, ptr %77, align 8, !tbaa !19
  %79 = getelementptr inbounds nuw %struct.Py_complex, ptr %4, i32 0, i32 0
  %80 = load double, ptr %79, align 8, !tbaa !17
  %81 = call double @atan2(double noundef %78, double noundef %80) #8, !tbaa !11
  %82 = getelementptr inbounds nuw %struct.Py_complex, ptr %5, i32 0, i32 1
  store double %81, ptr %82, align 8, !tbaa !19
  %83 = call ptr @__errno_location() #9
  store i32 33, ptr %83, align 4, !tbaa !11
  call void @llvm.memcpy.p0.p0.i64(ptr align 8 %3, ptr align 8 %5, i64 16, i1 false), !tbaa.struct !8
  store i32 1, ptr %11, align 4
  br label %138

84:                                               ; preds = %66
  br label %129

85:                                               ; preds = %57, %54
  %86 = load double, ptr %6, align 8, !tbaa !9
  %87 = load double, ptr %7, align 8, !tbaa !9
  %88 = call double @hypot(double noundef %86, double noundef %87) #8, !tbaa !11
  store double %88, ptr %10, align 8, !tbaa !9
  %89 = load double, ptr %10, align 8, !tbaa !9
  %90 = fcmp ole double 7.100000e-01, %89
  br i1 %90, label %91, label %124

91:                                               ; preds = %85
  %92 = load double, ptr %10, align 8, !tbaa !9
  %93 = fcmp ole double %92, 1.730000e+00
  br i1 %93, label %94, label %124

94:                                               ; preds = %91
  %95 = load double, ptr %6, align 8, !tbaa !9
  %96 = load double, ptr %7, align 8, !tbaa !9
  %97 = fcmp ogt double %95, %96
  br i1 %97, label %98, label %100

98:                                               ; preds = %94
  %99 = load double, ptr %6, align 8, !tbaa !9
  br label %102

100:                                              ; preds = %94
  %101 = load double, ptr %7, align 8, !tbaa !9
  br label %102

102:                                              ; preds = %100, %98
  %103 = phi double [ %99, %98 ], [ %101, %100 ]
  store double %103, ptr %8, align 8, !tbaa !9
  %104 = load double, ptr %6, align 8, !tbaa !9
  %105 = load double, ptr %7, align 8, !tbaa !9
  %106 = fcmp ogt double %104, %105
  br i1 %106, label %107, label %109

107:                                              ; preds = %102
  %108 = load double, ptr %7, align 8, !tbaa !9
  br label %111

109:                                              ; preds = %102
  %110 = load double, ptr %6, align 8, !tbaa !9
  br label %111

111:                                              ; preds = %109, %107
  %112 = phi double [ %108, %107 ], [ %110, %109 ]
  store double %112, ptr %9, align 8, !tbaa !9
  %113 = load double, ptr %8, align 8, !tbaa !9
  %114 = fsub double %113, 1.000000e+00
  %115 = load double, ptr %8, align 8, !tbaa !9
  %116 = fadd double %115, 1.000000e+00
  %117 = load double, ptr %9, align 8, !tbaa !9
  %118 = load double, ptr %9, align 8, !tbaa !9
  %119 = fmul double %117, %118
  %120 = call double @llvm.fmuladd.f64(double %114, double %116, double %119)
  %121 = call double @_Py_log1p(double noundef %120)
  %122 = fdiv double %121, 2.000000e+00
  %123 = getelementptr inbounds nuw %struct.Py_complex, ptr %5, i32 0, i32 0
  store double %122, ptr %123, align 8, !tbaa !17
  br label %128

124:                                              ; preds = %91, %85
  %125 = load double, ptr %10, align 8, !tbaa !9
  %126 = call double @log(double noundef %125) #8, !tbaa !11
  %127 = getelementptr inbounds nuw %struct.Py_complex, ptr %5, i32 0, i32 0
  store double %126, ptr %127, align 8, !tbaa !17
  br label %128

128:                                              ; preds = %124, %111
  br label %129

129:                                              ; preds = %128, %84
  br label %130

130:                                              ; preds = %129, %45
  %131 = getelementptr inbounds nuw %struct.Py_complex, ptr %4, i32 0, i32 1
  %132 = load double, ptr %131, align 8, !tbaa !19
  %133 = getelementptr inbounds nuw %struct.Py_complex, ptr %4, i32 0, i32 0
  %134 = load double, ptr %133, align 8, !tbaa !17
  %135 = call double @atan2(double noundef %132, double noundef %134) #8, !tbaa !11
  %136 = getelementptr inbounds nuw %struct.Py_complex, ptr %5, i32 0, i32 1
  store double %135, ptr %136, align 8, !tbaa !19
  %137 = call ptr @__errno_location() #9
  store i32 0, ptr %137, align 4, !tbaa !11
  call void @llvm.memcpy.p0.p0.i64(ptr align 8 %3, ptr align 8 %5, i64 16, i1 false), !tbaa.struct !8
  store i32 1, ptr %11, align 4
  br label %138

138:                                              ; preds = %130, %75, %21
  call void @llvm.lifetime.end.p0(i64 8, ptr %10) #8
  call void @llvm.lifetime.end.p0(i64 8, ptr %9) #8
  call void @llvm.lifetime.end.p0(i64 8, ptr %8) #8
  call void @llvm.lifetime.end.p0(i64 8, ptr %7) #8
  call void @llvm.lifetime.end.p0(i64 8, ptr %6) #8
  call void @llvm.lifetime.end.p0(i64 16, ptr %5) #8
  %139 = load { double, double }, ptr %3, align 8
  ret { double, double } %139
}