; Function Attrs: mustprogress nofree nounwind willreturn uwtable
define internal fastcc { double, double } @c_log(double %0, double %1) unnamed_addr #6 {
  %3 = tail call double @llvm.fabs.f64(double %0)
  %4 = fcmp ueq double %3, 0x7FF0000000000000
  %5 = tail call double @llvm.fabs.f64(double %1)
  %6 = fcmp ueq double %5, 0x7FF0000000000000
  %or.cond49 = select i1 %4, i1 true, i1 %6
  br i1 %or.cond49, label %7, label %32

7:                                                ; preds = %2
  %8 = tail call ptr @__errno_location() #12
  store i32 0, ptr %8, align 4, !tbaa !3
  br i1 %4, label %15, label %9

9:                                                ; preds = %7
  %10 = fcmp une double %0, 0.000000e+00
  %11 = tail call double @llvm.copysign.f64(double 1.000000e+00, double %0)
  %12 = fcmp oeq double %11, 1.000000e+00
  br i1 %10, label %13, label %14

13:                                               ; preds = %9
  %..i = select i1 %12, i64 4, i64 1
  br label %special_type.exit

14:                                               ; preds = %9
  %.7.i = select i1 %12, i64 3, i64 2
  br label %special_type.exit

15:                                               ; preds = %7
  %16 = fcmp uno double %0, 0.000000e+00
  br i1 %16, label %special_type.exit, label %17

17:                                               ; preds = %15
  %18 = tail call double @llvm.copysign.f64(double 1.000000e+00, double %0)
  %19 = fcmp oeq double %18, 1.000000e+00
  %.8.i = select i1 %19, i64 5, i64 0
  br label %special_type.exit

special_type.exit:                                ; preds = %13, %14, %15, %17
  %.0.i = phi i64 [ %..i, %13 ], [ %.7.i, %14 ], [ 6, %15 ], [ %.8.i, %17 ]
  br i1 %6, label %26, label %20

20:                                               ; preds = %special_type.exit
  %21 = fcmp une double %1, 0.000000e+00
  %22 = tail call double @llvm.copysign.f64(double 1.000000e+00, double %1)
  %23 = fcmp oeq double %22, 1.000000e+00
  br i1 %21, label %24, label %25

24:                                               ; preds = %20
  %..i52 = select i1 %23, i64 4, i64 1
  br label %special_type.exit54

25:                                               ; preds = %20
  %.7.i50 = select i1 %23, i64 3, i64 2
  br label %special_type.exit54

26:                                               ; preds = %special_type.exit
  %27 = fcmp uno double %1, 0.000000e+00
  br i1 %27, label %special_type.exit54, label %28

28:                                               ; preds = %26
  %29 = tail call double @llvm.copysign.f64(double 1.000000e+00, double %1)
  %30 = fcmp oeq double %29, 1.000000e+00
  %.8.i53 = select i1 %30, i64 5, i64 0
  br label %special_type.exit54

special_type.exit54:                              ; preds = %24, %25, %26, %28
  %.0.i51 = phi i64 [ %..i52, %24 ], [ %.7.i50, %25 ], [ 6, %26 ], [ %.8.i53, %28 ]
  %31 = getelementptr [7 x [7 x %struct.Py_complex]], ptr @log_special_values, i64 0, i64 %.0.i, i64 %.0.i51
  %.sroa.046.0.copyload = load double, ptr %31, align 16, !tbaa !7
  %.sroa.4.0..sroa_idx = getelementptr inbounds nuw i8, ptr %31, i64 8
  %.sroa.4.0.copyload = load double, ptr %.sroa.4.0..sroa_idx, align 8, !tbaa !7
  br label %77

32:                                               ; preds = %2
  %33 = fcmp ogt double %3, 0x7FCFFFFFFFFFFFFF
  %34 = fcmp ogt double %5, 0x7FCFFFFFFFFFFFFF
  %or.cond = select i1 %33, i1 true, i1 %34
  br i1 %or.cond, label %35, label %41

35:                                               ; preds = %32
  %36 = fmul double %3, 5.000000e-01
  %37 = fmul double %5, 5.000000e-01
  %38 = tail call double @hypot(double noundef %36, double noundef %37) #11, !tbaa !3
  %39 = tail call double @log(double noundef %38) #11, !tbaa !3
  %40 = fadd double %39, 0x3FE62E42FEFA39EF
  br label %74

41:                                               ; preds = %32
  %42 = fcmp olt double %3, 0x10000000000000
  %43 = fcmp olt double %5, 0x10000000000000
  %or.cond3 = select i1 %42, i1 %43, i1 false
  br i1 %or.cond3, label %44, label %56

44:                                               ; preds = %41
  %45 = fcmp one double %0, 0.000000e+00
  %46 = fcmp one double %1, 0.000000e+00
  %or.cond5 = select i1 %45, i1 true, i1 %46
  br i1 %or.cond5, label %47, label %53

47:                                               ; preds = %44
  %48 = tail call double @ldexp(double noundef %3, i32 noundef 53) #11, !tbaa !3
  %49 = tail call double @ldexp(double noundef %5, i32 noundef 53) #11, !tbaa !3
  %50 = tail call double @hypot(double noundef %48, double noundef %49) #11, !tbaa !3
  %51 = tail call double @log(double noundef %50) #11, !tbaa !3
  %52 = fadd double %51, 0xC0425E4F7B2737FA
  br label %74

53:                                               ; preds = %44
  %54 = tail call double @atan2(double noundef %1, double noundef %0) #11, !tbaa !3
  %55 = tail call ptr @__errno_location() #12
  store i32 33, ptr %55, align 4, !tbaa !3
  br label %77

56:                                               ; preds = %41
  %57 = tail call double @hypot(double noundef %3, double noundef %5) #11, !tbaa !3
  %58 = fcmp oge double %57, 7.100000e-01
  %59 = fcmp ole double %57, 1.730000e+00
  %or.cond7 = and i1 %58, %59
  br i1 %or.cond7, label %60, label %72

60:                                               ; preds = %56
  %61 = fcmp ogt double %3, %5
  %62 = select i1 %61, double %3, double %5
  %63 = select i1 %61, double %5, double %3
  %64 = fadd double %62, -1.000000e+00
  %65 = fadd double %62, 1.000000e+00
  %66 = fmul double %63, %63
  %67 = tail call double @llvm.fmuladd.f64(double %64, double %65, double %66)
  %68 = fcmp oeq double %67, 0.000000e+00
  br i1 %68, label %_Py_log1p.exit, label %69

69:                                               ; preds = %60
  %70 = tail call double @log1p(double noundef %67) #11, !tbaa !3
  br label %_Py_log1p.exit

_Py_log1p.exit:                                   ; preds = %60, %69
  %.0.i55 = phi double [ %70, %69 ], [ %67, %60 ]
  %71 = fmul double %.0.i55, 5.000000e-01
  br label %74

72:                                               ; preds = %56
  %73 = tail call double @log(double noundef %57) #11, !tbaa !3
  br label %74

74:                                               ; preds = %47, %72, %_Py_log1p.exit, %35
  %.sroa.0.0 = phi double [ %40, %35 ], [ %52, %47 ], [ %71, %_Py_log1p.exit ], [ %73, %72 ]
  %75 = tail call double @atan2(double noundef %1, double noundef %0) #11, !tbaa !3
  %76 = tail call ptr @__errno_location() #12
  store i32 0, ptr %76, align 4, !tbaa !3
  br label %77

77:                                               ; preds = %74, %53, %special_type.exit54
  %.sroa.046.0 = phi double [ %.sroa.0.0, %74 ], [ 0xFFF0000000000000, %53 ], [ %.sroa.046.0.copyload, %special_type.exit54 ]
  %.sroa.4.0 = phi double [ %75, %74 ], [ %54, %53 ], [ %.sroa.4.0.copyload, %special_type.exit54 ]
  %.fca.0.insert = insertvalue { double, double } poison, double %.sroa.046.0, 0
  %.fca.1.insert = insertvalue { double, double } %.fca.0.insert, double %.sroa.4.0, 1
  ret { double, double } %.fca.1.insert
}